target datalayout = "e-m:e-p270:32:32-p271:32:32-p272:64:64-i64:64-i128:128-f80:128-n8:16:32:64-S128"
target triple = "x86_64-pc-linux-gnu"

; Function Attrs: nounwind uwtable
define dso_local zeroext i1 @moveArrayTypeName(i32 noundef %0, ptr noundef %1, i32 noundef %2) #0 {
  %4 = alloca i1, align 1
  %5 = alloca i32, align 4
  %6 = alloca ptr, align 8
  %7 = alloca i32, align 4
  %8 = alloca i32, align 4
  %9 = alloca ptr, align 8
  %10 = alloca i32, align 4
  store i32 %0, ptr %5, align 4
  store ptr %1, ptr %6, align 8
  store i32 %2, ptr %7, align 4
  call void @llvm.lifetime.start.p0(i64 4, ptr %8) #7
  call void @llvm.lifetime.start.p0(i64 8, ptr %9) #7
  %11 = load i32, ptr %5, align 4
  %12 = call zeroext i1 @get_typisdefined(i32 noundef %11)
  br i1 %12, label %14, label %13

13:                                               ; preds = %3
  store i1 true, ptr %4, align 1
  store i32 1, ptr %10, align 4
  br label %33

14:                                               ; preds = %3
  %15 = load i32, ptr %5, align 4
  %16 = call i32 @get_element_type(i32 noundef %15)
  store i32 %16, ptr %8, align 4
  %17 = load i32, ptr %8, align 4
  %18 = icmp ne i32 %17, 0
  br i1 %18, label %19, label %24

19:                                               ; preds = %14
  %20 = load i32, ptr %8, align 4
  %21 = call i32 @get_array_type(i32 noundef %20)
  %22 = load i32, ptr %5, align 4
  %23 = icmp ne i32 %21, %22
  br i1 %23, label %24, label %25

24:                                               ; preds = %19, %14
  store i1 false, ptr %4, align 1
  store i32 1, ptr %10, align 4
  br label %33

25:                                               ; preds = %19
  %26 = load ptr, ptr %6, align 8
  %27 = load i32, ptr %7, align 4
  %28 = call ptr @makeArrayTypeName(ptr noundef %26, i32 noundef %27)
  store ptr %28, ptr %9, align 8
  %29 = load i32, ptr %5, align 4
  %30 = load ptr, ptr %9, align 8
  %31 = load i32, ptr %7, align 4
  call void @RenameTypeInternal(i32 noundef %29, ptr noundef %30, i32 noundef %31)
  call void @CommandCounterIncrement()
  %32 = load ptr, ptr %9, align 8
  call void @pfree(ptr noundef %32)
  store i1 true, ptr %4, align 1
  store i32 1, ptr %10, align 4
  br label %33

33:                                               ; preds = %25, %24, %13
  call void @llvm.lifetime.end.p0(i64 8, ptr %9) #7
  call void @llvm.lifetime.end.p0(i64 4, ptr %8) #7
  %34 = load i1, ptr %4, align 1
  ret i1 %34
}