; Function Attrs: nounwind uwtable
define dso_local noundef zeroext i1 @moveArrayTypeName(i32 noundef %0, ptr noundef %1, i32 noundef %2) local_unnamed_addr #0 {
  %4 = tail call zeroext i1 @get_typisdefined(i32 noundef %0) #8
  br i1 %4, label %5, label %11

5:                                                ; preds = %3
  %6 = tail call i32 @get_element_type(i32 noundef %0) #8
  %.not = icmp eq i32 %6, 0
  br i1 %.not, label %11, label %7

7:                                                ; preds = %5
  %8 = tail call i32 @get_array_type(i32 noundef %6) #8
  %.not13 = icmp eq i32 %8, %0
  br i1 %.not13, label %9, label %11

9:                                                ; preds = %7
  %10 = tail call ptr @makeArrayTypeName(ptr noundef %1, i32 noundef %2)
  tail call void @RenameTypeInternal(i32 noundef %0, ptr noundef %10, i32 noundef %2)
  tail call void @CommandCounterIncrement() #8
  tail call void @pfree(ptr noundef %10) #8
  br label %11

11:                                               ; preds = %5, %7, %3, %9
  %.0 = phi i1 [ true, %9 ], [ true, %3 ], [ false, %7 ], [ false, %5 ]
  ret i1 %.0
}